; Function Attrs: nofree norecurse nosync nounwind memory(read, argmem: readwrite, inaccessiblemem: none) uwtable
define i32 @stbtt_GetGlyphSVG(ptr noundef captures(none) %0, i32 noundef %1, ptr noundef writeonly captures(none) %2) local_unnamed_addr #3 {
  %4 = getelementptr inbounds nuw i8, ptr %0, i64 8
  %5 = load ptr, ptr %4, align 8, !tbaa !23
  %6 = getelementptr inbounds nuw i8, ptr %0, i64 52
  %7 = load i32, ptr %6, align 4, !tbaa !21
  %8 = icmp eq i32 %7, 0
  br i1 %8, label %52, label %9

9:                                                ; preds = %3
  %10 = tail call ptr @stbtt_FindSVGDoc(ptr noundef nonnull %0, i32 noundef %1)
  %.not = icmp eq ptr %10, null
  br i1 %.not, label %52, label %11

11:                                               ; preds = %9
  %12 = load i32, ptr %6, align 4, !tbaa !21
  %13 = sext i32 %12 to i64
  %14 = getelementptr inbounds i8, ptr %5, i64 %13
  %15 = getelementptr inbounds nuw i8, ptr %10, i64 4
  %16 = load i8, ptr %15, align 1, !tbaa !12
  %17 = zext i8 %16 to i64
  %18 = shl nuw nsw i64 %17, 24
  %19 = getelementptr inbounds nuw i8, ptr %10, i64 5
  %20 = load i8, ptr %19, align 1, !tbaa !12
  %21 = zext i8 %20 to i64
  %22 = shl nuw nsw i64 %21, 16
  %23 = or disjoint i64 %22, %18
  %24 = getelementptr inbounds nuw i8, ptr %10, i64 6
  %25 = load i8, ptr %24, align 1, !tbaa !12
  %26 = zext i8 %25 to i64
  %27 = shl nuw nsw i64 %26, 8
  %28 = or disjoint i64 %23, %27
  %29 = getelementptr inbounds nuw i8, ptr %10, i64 7
  %30 = load i8, ptr %29, align 1, !tbaa !12
  %31 = zext i8 %30 to i64
  %32 = or disjoint i64 %28, %31
  %33 = getelementptr inbounds nuw i8, ptr %14, i64 %32
  store ptr %33, ptr %2, align 8, !tbaa !20
  %34 = getelementptr inbounds nuw i8, ptr %10, i64 8
  %35 = load i8, ptr %34, align 1, !tbaa !12
  %36 = zext i8 %35 to i32
  %37 = shl nuw i32 %36, 24
  %38 = getelementptr inbounds nuw i8, ptr %10, i64 9
  %39 = load i8, ptr %38, align 1, !tbaa !12
  %40 = zext i8 %39 to i32
  %41 = shl nuw nsw i32 %40, 16
  %42 = or disjoint i32 %41, %37
  %43 = getelementptr inbounds nuw i8, ptr %10, i64 10
  %44 = load i8, ptr %43, align 1, !tbaa !12
  %45 = zext i8 %44 to i32
  %46 = shl nuw nsw i32 %45, 8
  %47 = or disjoint i32 %42, %46
  %48 = getelementptr inbounds nuw i8, ptr %10, i64 11
  %49 = load i8, ptr %48, align 1, !tbaa !12
  %50 = zext i8 %49 to i32
  %51 = or disjoint i32 %47, %50
  br label %52

52:                                               ; preds = %9, %3, %11
  %.0 = phi i32 [ %51, %11 ], [ 0, %3 ], [ 0, %9 ]
  ret i32 %.0
}